; Function Attrs: mustprogress uwtable
define hidden void @_ZN4cvc58internal6theory11quantifiers11TermDbSygus13toStreamSygusERSoNS0_12NodeTemplateILb1EEE(ptr noundef nonnull align 8 dereferenceable(8) %out, ptr nocapture noundef readonly %n) local_unnamed_addr #3 align 2 personality ptr @__gxx_personality_v0 {
entry:
  %ref.tmp = alloca %"class.cvc5::internal::NodeTemplate", align 8
  %agg.tmp3 = alloca %"class.cvc5::internal::NodeTemplate", align 8
  %0 = load ptr, ptr %n, align 8
  %1 = load atomic i8, ptr @_ZGVZN4cvc58internal4expr9NodeValue4nullEvE6s_null acquire, align 8
  %guard.uninitialized.i.i = icmp eq i8 %1, 0
  br i1 %guard.uninitialized.i.i, label %init.check.i.i, label %_ZNK4cvc58internal12NodeTemplateILb1EE6isNullEv.exit, !prof !4

init.check.i.i:                                   ; preds = %entry
  %2 = tail call i32 @__cxa_guard_acquire(ptr nonnull @_ZGVZN4cvc58internal4expr9NodeValue4nullEvE6s_null) #22
  %tobool.not.i.i = icmp eq i32 %2, 0
  br i1 %tobool.not.i.i, label %_ZNK4cvc58internal12NodeTemplateILb1EE6isNullEv.exit, label %init.i.i

init.i.i:                                         ; preds = %init.check.i.i
  %call.i.i = invoke noalias noundef nonnull dereferenceable(16) ptr @_Znwm(i64 noundef 16) #21
          to label %invoke.cont.i.i unwind label %lpad.i.i

invoke.cont.i.i:                                  ; preds = %init.i.i
  store i64 1152920405095219200, ptr %call.i.i, align 8
  %d_kind.i.i.i = getelementptr inbounds i8, ptr %call.i.i, i64 8
  store i16 0, ptr %d_kind.i.i.i, align 8
  %d_nchildren.i.i.i = getelementptr inbounds i8, ptr %call.i.i, i64 12
  store i32 0, ptr %d_nchildren.i.i.i, align 4
  store ptr %call.i.i, ptr @_ZZN4cvc58internal4expr9NodeValue4nullEvE6s_null, align 8
  tail call void @__cxa_guard_release(ptr nonnull @_ZGVZN4cvc58internal4expr9NodeValue4nullEvE6s_null) #22
  br label %_ZNK4cvc58internal12NodeTemplateILb1EE6isNullEv.exit

common.resume:                                    ; preds = %ehcleanup11, %lpad.i.i
  %common.resume.op = phi { ptr, i32 } [ %3, %lpad.i.i ], [ %.pn, %ehcleanup11 ]
  resume { ptr, i32 } %common.resume.op

lpad.i.i:                                         ; preds = %init.i.i
  %3 = landingpad { ptr, i32 }
          cleanup
  tail call void @__cxa_guard_abort(ptr nonnull @_ZGVZN4cvc58internal4expr9NodeValue4nullEvE6s_null) #22
  br label %common.resume

_ZNK4cvc58internal12NodeTemplateILb1EE6isNullEv.exit: ; preds = %entry, %init.check.i.i, %invoke.cont.i.i
  %4 = load ptr, ptr @_ZZN4cvc58internal4expr9NodeValue4nullEvE6s_null, align 8
  %cmp.i = icmp eq ptr %0, %4
  %5 = load ptr, ptr %n, align 8
  br i1 %cmp.i, label %if.then, label %if.end

if.then:                                          ; preds = %_ZNK4cvc58internal12NodeTemplateILb1EE6isNullEv.exit
  tail call void @_ZNK4cvc58internal4expr9NodeValue8toStreamERSo(ptr noundef nonnull align 8 dereferenceable(16) %5, ptr noundef nonnull align 8 dereferenceable(8) %out)
  br label %return

if.end:                                           ; preds = %_ZNK4cvc58internal12NodeTemplateILb1EE6isNullEv.exit
  store ptr %5, ptr %agg.tmp3, align 8
  %bf.load.i.i = load i64, ptr %5, align 8
  %bf.lshr.i.i = lshr i64 %bf.load.i.i, 40
  %6 = trunc i64 %bf.lshr.i.i to i32
  %bf.cast.i.i = and i32 %6, 1048575
  %cmp.i.i = icmp ult i32 %bf.cast.i.i, 1048574
  br i1 %cmp.i.i, label %if.then.i.i, label %if.else.i.i

if.then.i.i:                                      ; preds = %if.end
  %bf.value.i.i = add i64 %bf.load.i.i, 1099511627776
  %bf.shl.i.i = and i64 %bf.value.i.i, 1152920405095219200
  %bf.clear7.i.i = and i64 %bf.load.i.i, -1152920405095219201
  %bf.set.i.i = or disjoint i64 %bf.shl.i.i, %bf.clear7.i.i
  store i64 %bf.set.i.i, ptr %5, align 8
  br label %_ZN4cvc58internal12NodeTemplateILb1EEC2ERKS2_.exit

if.else.i.i:                                      ; preds = %if.end
  %cmp12.i.i = icmp eq i32 %bf.cast.i.i, 1048574
  br i1 %cmp12.i.i, label %if.then13.i.i, label %_ZN4cvc58internal12NodeTemplateILb1EEC2ERKS2_.exit

if.then13.i.i:                                    ; preds = %if.else.i.i
  %bf.set23.i.i = or i64 %bf.load.i.i, 1152920405095219200
  store i64 %bf.set23.i.i, ptr %5, align 8
  tail call void @_ZN4cvc58internal4expr9NodeValue20markRefCountMaxedOutEv(ptr noundef nonnull align 8 dereferenceable(16) %5)
  br label %_ZN4cvc58internal12NodeTemplateILb1EEC2ERKS2_.exit

_ZN4cvc58internal12NodeTemplateILb1EEC2ERKS2_.exit: ; preds = %if.then.i.i, %if.else.i.i, %if.then13.i.i
  invoke void @_ZN4cvc58internal6theory9datatypes5utils14sygusToBuiltinENS0_12NodeTemplateILb1EEEb(ptr nonnull sret(%"class.cvc5::internal::NodeTemplate") align 8 %ref.tmp, ptr noundef nonnull %agg.tmp3, i1 noundef zeroext true)
          to label %invoke.cont5 unwind label %lpad4

invoke.cont5:                                     ; preds = %_ZN4cvc58internal12NodeTemplateILb1EEC2ERKS2_.exit
  %7 = load ptr, ptr %ref.tmp, align 8
  invoke void @_ZNK4cvc58internal4expr9NodeValue8toStreamERSo(ptr noundef nonnull align 8 dereferenceable(16) %7, ptr noundef nonnull align 8 dereferenceable(8) %out)
          to label %invoke.cont9 unwind label %lpad8

invoke.cont9:                                     ; preds = %invoke.cont5
  %8 = load ptr, ptr %ref.tmp, align 8
  %bf.load.i.i6 = load i64, ptr %8, align 8
  %9 = and i64 %bf.load.i.i6, 1152920405095219200
  %cmp.not.i.i = icmp eq i64 %9, 1152920405095219200
  br i1 %cmp.not.i.i, label %_ZN4cvc58internal12NodeTemplateILb1EED2Ev.exit, label %if.then.i.i7

if.then.i.i7:                                     ; preds = %invoke.cont9
  %bf.value.i.i8 = add i64 %bf.load.i.i6, 1152920405095219200
  %bf.shl.i.i9 = and i64 %bf.value.i.i8, 1152920405095219200
  %bf.clear7.i.i10 = and i64 %bf.load.i.i6, -1152920405095219201
  %bf.set.i.i11 = or disjoint i64 %bf.shl.i.i9, %bf.clear7.i.i10
  store i64 %bf.set.i.i11, ptr %8, align 8
  %cmp12.i.i12 = icmp eq i64 %bf.shl.i.i9, 0
  br i1 %cmp12.i.i12, label %if.then13.i.i13, label %_ZN4cvc58internal12NodeTemplateILb1EED2Ev.exit

if.then13.i.i13:                                  ; preds = %if.then.i.i7
  invoke void @_ZN4cvc58internal4expr9NodeValue15markForDeletionEv(ptr noundef nonnull align 8 dereferenceable(16) %8)
          to label %_ZN4cvc58internal12NodeTemplateILb1EED2Ev.exit unwind label %terminate.lpad.i

terminate.lpad.i:                                 ; preds = %if.then13.i.i13
  %10 = landingpad { ptr, i32 }
          catch ptr null
  %11 = extractvalue { ptr, i32 } %10, 0
  call void @__clang_call_terminate(ptr %11) #23
  unreachable

_ZN4cvc58internal12NodeTemplateILb1EED2Ev.exit:   ; preds = %invoke.cont9, %if.then.i.i7, %if.then13.i.i13
  %12 = load ptr, ptr %agg.tmp3, align 8
  %bf.load.i.i14 = load i64, ptr %12, align 8
  %13 = and i64 %bf.load.i.i14, 1152920405095219200
  %cmp.not.i.i15 = icmp eq i64 %13, 1152920405095219200
  br i1 %cmp.not.i.i15, label %return, label %if.then.i.i16

if.then.i.i16:                                    ; preds = %_ZN4cvc58internal12NodeTemplateILb1EED2Ev.exit
  %bf.value.i.i17 = add i64 %bf.load.i.i14, 1152920405095219200
  %bf.shl.i.i18 = and i64 %bf.value.i.i17, 1152920405095219200
  %bf.clear7.i.i19 = and i64 %bf.load.i.i14, -1152920405095219201
  %bf.set.i.i20 = or disjoint i64 %bf.shl.i.i18, %bf.clear7.i.i19
  store i64 %bf.set.i.i20, ptr %12, align 8
  %cmp12.i.i21 = icmp eq i64 %bf.shl.i.i18, 0
  br i1 %cmp12.i.i21, label %if.then13.i.i22, label %return

if.then13.i.i22:                                  ; preds = %if.then.i.i16
  invoke void @_ZN4cvc58internal4expr9NodeValue15markForDeletionEv(ptr noundef nonnull align 8 dereferenceable(16) %12)
          to label %return unwind label %terminate.lpad.i23

terminate.lpad.i23:                               ; preds = %if.then13.i.i22
  %14 = landingpad { ptr, i32 }
          catch ptr null
  %15 = extractvalue { ptr, i32 } %14, 0
  call void @__clang_call_terminate(ptr %15) #23
  unreachable

return:                                           ; preds = %if.then, %if.then13.i.i22, %if.then.i.i16, %_ZN4cvc58internal12NodeTemplateILb1EED2Ev.exit
  ret void

lpad4:                                            ; preds = %_ZN4cvc58internal12NodeTemplateILb1EEC2ERKS2_.exit
  %16 = landingpad { ptr, i32 }
          cleanup
  br label %ehcleanup11

lpad8:                                            ; preds = %invoke.cont5
  %17 = landingpad { ptr, i32 }
          cleanup
  call void @_ZN4cvc58internal12NodeTemplateILb1EED2Ev(ptr noundef nonnull align 8 dereferenceable(8) %ref.tmp) #22
  br label %ehcleanup11

ehcleanup11:                                      ; preds = %lpad8, %lpad4
  %.pn = phi { ptr, i32 } [ %17, %lpad8 ], [ %16, %lpad4 ]
  call void @_ZN4cvc58internal12NodeTemplateILb1EED2Ev(ptr noundef nonnull align 8 dereferenceable(8) %agg.tmp3) #22
  br label %common.resume
}